; Function Attrs: mustprogress uwtable
define void @_ZN32pxrInternal_v0_24__pxrReserved__22ArSetPreferredResolverERKNSt7__cxx1112basic_stringIcSt11char_traitsIcESaIcEEE(ptr noundef nonnull align 8 dereferenceable(32) %0) local_unnamed_addr #0 personality ptr @__gxx_personality_v0 {
  %2 = load atomic i64, ptr @_ZN32pxrInternal_v0_24__pxrReserved__L18_preferredResolverB5cxx11E seq_cst, align 8
  %3 = inttoptr i64 %2 to ptr
  %.not.i.i = icmp eq i64 %2, 0
  br i1 %.not.i.i, label %4, label %_ZNK32pxrInternal_v0_24__pxrReserved__12TfStaticDataINSt7__cxx1112basic_stringIcSt11char_traitsIcESaIcEEENS_27Tf_StaticDataDefaultFactoryIS6_EEEdeEv.exit

4:                                                ; preds = %1
  %5 = tail call noalias noundef nonnull dereferenceable(32) ptr @_Znwm(i64 noundef 32) #34
  tail call void @_ZNSt7__cxx1112basic_stringIcSt11char_traitsIcESaIcEEC1Ev(ptr noundef nonnull align 8 dereferenceable(32) %5) #15
  %6 = ptrtoint ptr %5 to i64
  %7 = cmpxchg ptr @_ZN32pxrInternal_v0_24__pxrReserved__L18_preferredResolverB5cxx11E, i64 0, i64 %6 seq_cst seq_cst, align 8
  %8 = extractvalue { i64, i1 } %7, 1
  br i1 %8, label %_ZNK32pxrInternal_v0_24__pxrReserved__12TfStaticDataINSt7__cxx1112basic_stringIcSt11char_traitsIcESaIcEEENS_27Tf_StaticDataDefaultFactoryIS6_EEEdeEv.exit, label %9

9:                                                ; preds = %4
  tail call void @_ZNSt7__cxx1112basic_stringIcSt11char_traitsIcESaIcEED1Ev(ptr noundef nonnull align 8 dereferenceable(32) %5) #15
  tail call void @_ZdlPvm(ptr noundef nonnull %5, i64 noundef 32) #35
  %10 = load atomic i64, ptr @_ZN32pxrInternal_v0_24__pxrReserved__L18_preferredResolverB5cxx11E seq_cst, align 8
  %11 = inttoptr i64 %10 to ptr
  br label %_ZNK32pxrInternal_v0_24__pxrReserved__12TfStaticDataINSt7__cxx1112basic_stringIcSt11char_traitsIcESaIcEEENS_27Tf_StaticDataDefaultFactoryIS6_EEEdeEv.exit

_ZNK32pxrInternal_v0_24__pxrReserved__12TfStaticDataINSt7__cxx1112basic_stringIcSt11char_traitsIcESaIcEEENS_27Tf_StaticDataDefaultFactoryIS6_EEEdeEv.exit: ; preds = %1, %4, %9
  %12 = phi ptr [ %3, %1 ], [ %11, %9 ], [ %5, %4 ]
  %13 = tail call noundef nonnull align 8 dereferenceable(32) ptr @_ZNSt7__cxx1112basic_stringIcSt11char_traitsIcESaIcEEaSERKS4_(ptr noundef nonnull align 8 dereferenceable(32) %12, ptr noundef nonnull align 8 dereferenceable(32) %0)
  ret void
}